(dp1
F12
(dp2
S'PRESELECTION'
p3
(dp4
I00
(dp5
S'DETA_TAU1_TAU2'
p6
(dp7
S'OS_NONISOL'
p8
(dp9
S'qcd_z_scale'
p10
F1
sS'qcd_data_scale'
p11
F1
sS'qcd_scale_error'
p12
F0.063345760281333582
sS'z_scale_error'
p13
F0.041660466846199187
sS'qcd_scale'
p14
F1.9108099265969474
sS'qcd_others_scale'
p15
F1
sS'z_scale'
p16
F0.96872057640052467
ssS'SS'
p17
(dp18
S'qcd_z_scale'
p19
F1
sS'qcd_data_scale'
p20
F1
sS'qcd_scale_error'
p21
F0.048223982452816741
sS'z_scale_error'
p22
F0.042979605141074753
sS'qcd_scale'
p23
F1.4124625646002378
sS'qcd_others_scale'
p24
F1
sS'z_scale'
p25
F0.96735237942872088
ssS'nOS_NONISOL'
p26
(dp27
S'qcd_z_scale'
p28
F1
sS'qcd_data_scale'
p29
F1
sS'qcd_scale_error'
p30
F0.025684031531969964
sS'z_scale_error'
p31
F0.045358687811788048
sS'qcd_scale'
p32
F0.74970312725992438
sS'qcd_others_scale'
p33
F1
sS'z_scale'
p34
F0.89678682977685586
ssS'SS_NONISOL'
p35
(dp36
S'qcd_z_scale'
p37
F1
sS'qcd_data_scale'
p38
F1
sS'qcd_scale_error'
p39
F0.1187543706779417
sS'z_scale_error'
p40
F0.056490984574933435
sS'qcd_scale'
p41
F2.7528548320797852
sS'qcd_others_scale'
p42
F1
sS'z_scale'
p43
F0.84716437126802469
ssS'nOS_ISOL'
p44
(dp45
S'qcd_z_scale'
p46
F1
sS'qcd_data_scale'
p47
F1
sS'qcd_scale_error'
p48
F0.047835665113278213
sS'z_scale_error'
p49
F0.044317229101046296
sS'qcd_scale'
p50
F1.3600507760546374
sS'qcd_others_scale'
p51
F1
sS'z_scale'
p52
F0.96672766933668197
ssS'SS_ISOL'
p53
(dp54
S'qcd_z_scale'
p55
F1
sS'qcd_data_scale'
p56
F1
sS'qcd_scale_error'
p57
F0.1378099482469505
sS'z_scale_error'
p58
F0.05066091509486674
sS'qcd_scale'
p59
F3.1032399022545114
sS'qcd_others_scale'
p60
F1
sS'z_scale'
p61
F1.0262765950058106
ssS'NONISOL'
p62
(dp63
S'qcd_z_scale'
p64
F1
sS'qcd_data_scale'
p65
F1
sS'qcd_scale_error'
p66
F0.01829903285405212
sS'z_scale_error'
p67
F0.044592326142764149
sS'qcd_scale'
p68
F0.53966191197769964
sS'qcd_others_scale'
p69
F1
sS'z_scale'
p70
F0.90604666299722147
ssS'nOS'
p71
(dp72
S'qcd_z_scale'
p73
F1
sS'qcd_data_scale'
p74
F1
sS'qcd_scale_error'
p75
F0.016747597312968928
sS'z_scale_error'
p76
F0.045127823098382543
sS'qcd_scale'
p77
F0.48443428556633472
sS'qcd_others_scale'
p78
F1
sS'z_scale'
p79
F0.91723993492721356
ssssI01
(dp80
S'DETA_TAU1_TAU2'
p81
(dp82
S'OS_NONISOL'
p83
(dp84
S'qcd_z_scale'
p85
F1
sS'qcd_data_scale'
p86
F1
sS'qcd_scale_error'
p87
F0.06462280855057019
sS'z_scale_error'
p88
F13.188995609102916
sS'qcd_scale'
p89
F1.9320587126941011
sS'qcd_others_scale'
p90
F1
sS'z_scale'
p91
F305.82585632668702
ssS'SS'
p92
(dp93
S'qcd_z_scale'
p94
F1
sS'qcd_data_scale'
p95
F1
sS'qcd_scale_error'
p96
F0.048537708219617511
sS'z_scale_error'
p97
F13.62799377893206
sS'qcd_scale'
p98
F1.4121976889662267
sS'qcd_others_scale'
p99
F1
sS'z_scale'
p100
F303.6853625524754
ssS'nOS_NONISOL'
p101
(dp102
S'qcd_z_scale'
p103
F1
sS'qcd_data_scale'
p104
F1
sS'qcd_scale_error'
p105
F0.025793048817185343
sS'z_scale_error'
p106
F14.310333254262027
sS'qcd_scale'
p107
F0.74828569541156797
sS'qcd_others_scale'
p108
F1
sS'z_scale'
p109
F283.58443637653232
ssS'SS_NONISOL'
p110
(dp111
S'qcd_z_scale'
p112
F1
sS'qcd_data_scale'
p113
F1
sS'qcd_scale_error'
p114
F0.11932537464551093
sS'z_scale_error'
p115
F17.87919472905579
sS'qcd_scale'
p116
F2.754500555239968
sS'qcd_others_scale'
p117
F1
sS'z_scale'
p118
F265.87392723993099
ssS'nOS_ISOL'
p119
(dp120
S'qcd_z_scale'
p121
F1
sS'qcd_data_scale'
p122
F1
sS'qcd_scale_error'
p123
F0.047848196098886665
sS'z_scale_error'
p124
F13.997574993244301
sS'qcd_scale'
p125
F1.3526654725969873
sS'qcd_others_scale'
p126
F1
sS'z_scale'
p127
F304.7850998471128
ssS'SS_ISOL'
p128
(dp129
S'qcd_z_scale'
p130
F1
sS'qcd_data_scale'
p131
F1
sS'qcd_scale_error'
p132
F0.1389033140858987
sS'z_scale_error'
p133
F16.100794398680591
sS'qcd_scale'
p134
F3.1104094312713877
sS'qcd_others_scale'
p135
F1
sS'z_scale'
p136
F320.99662633546592
ssS'NONISOL'
p137
(dp138
S'qcd_z_scale'
p139
F1
sS'qcd_data_scale'
p140
F1
sS'qcd_scale_error'
p141
F0.018452839311580444
sS'z_scale_error'
p142
F14.078438149004647
sS'qcd_scale'
p143
F0.54009399940555225
sS'qcd_others_scale'
p144
F1
sS'z_scale'
p145
F286.81405820923663
ssS'nOS'
p146
(dp147
S'qcd_z_scale'
p148
F1
sS'qcd_data_scale'
p149
F1
sS'qcd_scale_error'
p150
F0.016797089439379308
sS'z_scale_error'
p151
F14.241836495250505
sS'qcd_scale'
p152
F0.48296154149991766
sS'qcd_others_scale'
p153
F1
sS'z_scale'
p154
F289.74960188939212
ssssss.