(dp1
F11
(dp2
S'PRESELECTION'
p3
(dp4
I00
(dp5
S'DETA_TAU1_TAU2'
p6
(dp7
S'OS_NONISOL'
p8
(dp9
S'qcd_z_scale'
p10
F1
sS'qcd_data_scale'
p11
F1
sS'qcd_scale_error'
p12
F0.65513647634724637
sS'z_scale_error'
p13
F0.16228815991225132
sS'qcd_scale'
p14
F2.464145600292901
sS'qcd_others_scale'
p15
F1
sS'z_scale'
p16
F1.4367539022675093
ssS'SS'
p17
(dp18
S'qcd_z_scale'
p19
F1
sS'qcd_data_scale'
p20
F1
sS'qcd_scale_error'
p21
F0.46707981174691093
sS'z_scale_error'
p22
F0.30444609909454112
sS'qcd_scale'
p23
F1.4886850211392229
sS'qcd_others_scale'
p24
F1
sS'z_scale'
p25
F1.1564780381894575
ssS'nOS_NONISOL'
p26
(dp27
S'qcd_z_scale'
p28
F1
sS'qcd_data_scale'
p29
F1
sS'qcd_scale_error'
p30
F0.22932207589057432
sS'z_scale_error'
p31
F0.25757243709236899
sS'qcd_scale'
p32
F0.99717071577620398
sS'qcd_others_scale'
p33
F1
sS'z_scale'
p34
F1.0024867612707573
ssS'SS_NONISOL'
p35
(dp36
S'qcd_z_scale'
p37
F1
sS'qcd_data_scale'
p38
F1
sS'qcd_scale_error'
p39
F2.4000382983366952
sS'z_scale_error'
p40
F0.43710861955346514
sS'qcd_scale'
p41
F5.8847459597788863
sS'qcd_others_scale'
p42
F1
sS'z_scale'
p43
F1.061005995597982
ssS'nOS_ISOL'
p44
(dp45
S'qcd_z_scale'
p46
F1
sS'qcd_data_scale'
p47
F1
sS'qcd_scale_error'
p48
F0.066595056794860108
sS'z_scale_error'
p49
F0.24531519448908451
sS'qcd_scale'
p50
F0.28656216746303664
sS'qcd_others_scale'
p51
F1
sS'z_scale'
p52
F1.0975838374345928
ssS'SS_ISOL'
p53
(dp54
S'qcd_z_scale'
p55
F1
sS'qcd_data_scale'
p56
F1
sS'qcd_scale_error'
p57
F0.67423236351938975
sS'z_scale_error'
p58
F0.31628325030065269
sS'qcd_scale'
p59
F1.9453706052406137
sS'qcd_others_scale'
p60
F1
sS'z_scale'
p61
F1.1625962288526237
ssS'NONISOL'
p62
(dp63
S'qcd_z_scale'
p64
F1
sS'qcd_data_scale'
p65
F1
sS'qcd_scale_error'
p66
F0.13751308412082144
sS'z_scale_error'
p67
F0.20270698849282115
sS'qcd_scale'
p68
F0.66188525355023353
sS'qcd_others_scale'
p69
F1
sS'z_scale'
p70
F1.1799425801607359
ssS'nOS'
p71
(dp72
S'qcd_z_scale'
p73
F1
sS'qcd_data_scale'
p74
F1
sS'qcd_scale_error'
p75
F0.049655574385933349
sS'z_scale_error'
p76
F0.2408758380319248
sS'qcd_scale'
p77
F0.21825027799488037
sS'qcd_others_scale'
p78
F1
sS'z_scale'
p79
F1.0943497277973464
ssssI01
(dp80
S'DETA_TAU1_TAU2'
p81
(dp82
S'OS_NONISOL'
p83
(dp84
S'qcd_z_scale'
p85
F1
sS'qcd_data_scale'
p86
F1
sS'qcd_scale_error'
p87
F0.82597596854364153
sS'z_scale_error'
p88
F46.536952486471748
sS'qcd_scale'
p89
F2.8125737547478376
sS'qcd_others_scale'
p90
F1
sS'z_scale'
p91
F315.35588685314906
ssS'SS'
p92
(dp93
S'qcd_z_scale'
p94
F1
sS'qcd_data_scale'
p95
F1
sS'qcd_scale_error'
p96
F0.47036223877005084
sS'z_scale_error'
p97
F67.026244067454115
sS'qcd_scale'
p98
F1.8390238913114811
sS'qcd_others_scale'
p99
F1
sS'z_scale'
p100
F190.22705195483721
ssS'nOS_NONISOL'
p101
(dp102
S'qcd_z_scale'
p103
F1
sS'qcd_data_scale'
p104
F1
sS'qcd_scale_error'
p105
F0.21509078527210709
sS'z_scale_error'
p106
F52.57657090317452
sS'qcd_scale'
p107
F1.0835806851616032
sS'qcd_others_scale'
p108
F1
sS'z_scale'
p109
F199.93740128735735
ssS'SS_NONISOL'
p110
(dp111
S'qcd_z_scale'
p112
F1
sS'qcd_data_scale'
p113
F1
sS'qcd_scale_error'
p114
F2.3669430484436549
sS'z_scale_error'
p115
F94.248811803887648
sS'qcd_scale'
p116
F6.3618761744305807
sS'qcd_others_scale'
p117
F1
sS'z_scale'
p118
F214.47570924035992
ssS'nOS_ISOL'
p119
(dp120
S'qcd_z_scale'
p121
F1
sS'qcd_data_scale'
p122
F1
sS'qcd_scale_error'
p123
F0.063161478053352579
sS'z_scale_error'
p124
F51.283983235506362
sS'qcd_scale'
p125
F0.31842703441348447
sS'qcd_others_scale'
p126
F1
sS'z_scale'
p127
F214.04056391894002
ssS'SS_ISOL'
p128
(dp129
S'qcd_z_scale'
p130
F1
sS'qcd_data_scale'
p131
F1
sS'qcd_scale_error'
p132
F0.7216788172885632
sS'z_scale_error'
p133
F72.710967377270364
sS'qcd_scale'
p134
F2.267453981220803
sS'qcd_others_scale'
p135
F1
sS'z_scale'
p136
F214.63429352530753
ssS'NONISOL'
p137
(dp138
S'qcd_z_scale'
p139
F1
sS'qcd_data_scale'
p140
F1
sS'qcd_scale_error'
p141
F0.13295474122667916
sS'z_scale_error'
p142
F42.419479594531161
sS'qcd_scale'
p143
F0.73286479208719268
sS'qcd_others_scale'
p144
F1
sS'z_scale'
p145
F239.46014588350289
ssS'nOS'
p146
(dp147
S'qcd_z_scale'
p148
F1
sS'qcd_data_scale'
p149
F1
sS'qcd_scale_error'
p150
F0.047006831766257008
sS'z_scale_error'
p151
F50.135710920413054
sS'qcd_scale'
p152
F0.24042696005763625
sS'qcd_others_scale'
p153
F1
sS'z_scale'
p154
F216.16885844594691
ssssssF12
(dp155
S'PRESELECTION'
p156
(dp157
I00
(dp158
S'DETA_TAU1_TAU2'
p159
(dp160
S'OS_NONISOL'
p161
(dp162
S'qcd_z_scale'
p163
F1
sS'qcd_data_scale'
p164
F1
sS'qcd_scale_error'
p165
F0.10454519164410715
sS'z_scale_error'
p166
F0.061236475011642123
sS'qcd_scale'
p167
F1.8475671993805942
sS'qcd_others_scale'
p168
F1
sS'z_scale'
p169
F1.0399724257392828
ssS'SS'
p170
(dp171
S'qcd_z_scale'
p172
F1
sS'qcd_data_scale'
p173
F1
sS'qcd_scale_error'
p174
F0.087270803005722167
sS'z_scale_error'
p175
F0.071063405140983568
sS'qcd_scale'
p176
F1.5086510195866984
sS'qcd_others_scale'
p177
F1
sS'z_scale'
p178
F0.88841164593520827
ssS'nOS_NONISOL'
p179
(dp180
S'qcd_z_scale'
p181
F1
sS'qcd_data_scale'
p182
F1
sS'qcd_scale_error'
p183
F0.045469272820455507
sS'z_scale_error'
p184
F0.074146095053633412
sS'qcd_scale'
p185
F0.79476952175759974
sS'qcd_others_scale'
p186
F1
sS'z_scale'
p187
F0.81897672270023636
ssS'SS_NONISOL'
p188
(dp189
S'qcd_z_scale'
p190
F1
sS'qcd_data_scale'
p191
F1
sS'qcd_scale_error'
p192
F0.1595181159311177
sS'z_scale_error'
p193
F0.073654849614625359
sS'qcd_scale'
p194
F2.7942039865755941
sS'qcd_others_scale'
p195
F1
sS'z_scale'
p196
F0.82445204520668403
ssS'nOS_ISOL'
p197
(dp198
S'qcd_z_scale'
p199
F1
sS'qcd_data_scale'
p200
F1
sS'qcd_scale_error'
p201
F0.05394488423607148
sS'z_scale_error'
p202
F0.046427722627162951
sS'qcd_scale'
p203
F1.6705253783965324
sS'qcd_others_scale'
p204
F1
sS'z_scale'
p205
F0.67391858654760239
ssS'SS_ISOL'
p206
(dp207
S'qcd_z_scale'
p208
F1
sS'qcd_data_scale'
p209
F1
sS'qcd_scale_error'
p210
F0.19144601804437017
sS'z_scale_error'
p211
F0.067420198654893598
sS'qcd_scale'
p212
F3.2392332634850658
sS'qcd_others_scale'
p213
F1
sS'z_scale'
p214
F0.97897143633745898
ssS'NONISOL'
p215
(dp216
S'qcd_z_scale'
p217
F1
sS'qcd_data_scale'
p218
F1
sS'qcd_scale_error'
p219
F0.031756097880535336
sS'z_scale_error'
p220
F0.071695851088443494
sS'qcd_scale'
p221
F0.55956668663955966
sS'qcd_others_scale'
p222
F1
sS'z_scale'
p223
F0.85235393543051963
ssS'nOS'
p224
(dp225
S'qcd_z_scale'
p226
F1
sS'qcd_data_scale'
p227
F1
sS'qcd_scale_error'
p228
F0.014326868344023053
sS'z_scale_error'
p229
F0.039520959411100419
sS'qcd_scale'
p230
F0.4781420703148338
sS'qcd_others_scale'
p231
F1
sS'z_scale'
p232
F0.93317554571405215
sssS'DR_TAU1_TAU2'
p233
(dp234
S'OS_NONISOL'
p235
(dp236
S'qcd_z_scale'
p237
F1
sS'qcd_data_scale'
p238
F1
sS'qcd_scale_error'
p239
F0.07644556629105545
sS'z_scale_error'
p240
F0.053855580790144096
sS'qcd_scale'
p241
F2.0005417995448043
sS'qcd_others_scale'
p242
F1
sS'z_scale'
p243
F0.84928977141534812
ssS'SS'
p244
(dp245
S'qcd_z_scale'
p246
F1
sS'qcd_data_scale'
p247
F1
sS'qcd_scale_error'
p248
F0.046412574314135834
sS'z_scale_error'
p249
F0.043082184950349635
sS'qcd_scale'
p250
F1.2117903811059236
sS'qcd_others_scale'
p251
F1
sS'z_scale'
p252
F1.1532769322067111
ssS'nOS_NONISOL'
p253
(dp254
S'qcd_z_scale'
p255
F1
sS'qcd_data_scale'
p256
F1
sS'qcd_scale_error'
p257
F0.025133613558231956
sS'z_scale_error'
p258
F0.045982941107425623
sS'qcd_scale'
p259
F0.65872505606330423
sS'qcd_others_scale'
p260
F1
sS'z_scale'
p261
F1.06648295031245
ssS'SS_NONISOL'
p262
(dp263
S'qcd_z_scale'
p264
F1
sS'qcd_data_scale'
p265
F1
sS'qcd_scale_error'
p266
F0.085217571035124881
sS'z_scale_error'
p267
F0.044599887219295711
sS'qcd_scale'
p268
F2.2362233361661752
sS'qcd_others_scale'
p269
F1
sS'z_scale'
p270
F1.1038759896575474
ssS'nOS_ISOL'
p271
(dp272
S'qcd_z_scale'
p273
F1
sS'qcd_data_scale'
p274
F1
sS'qcd_scale_error'
p275
F0.043350981186677795
sS'z_scale_error'
p276
F0.041117708270689557
sS'qcd_scale'
p277
F1.129289012146562
sS'qcd_others_scale'
p278
F1
sS'z_scale'
p279
F1.2111882394745004
ssS'SS_ISOL'
p280
(dp281
S'qcd_z_scale'
p282
F1
sS'qcd_data_scale'
p283
F1
sS'qcd_scale_error'
p284
F0.10017506428135851
sS'z_scale_error'
p285
F0.040609607575149226
sS'qcd_scale'
p286
F2.5840691988557931
sS'qcd_others_scale'
p287
F1
sS'z_scale'
p288
F1.2376706150098786
ssS'NONISOL'
p289
(dp290
S'qcd_z_scale'
p291
F1
sS'qcd_data_scale'
p292
F1
sS'qcd_scale_error'
p293
F0.019061492515056577
sS'z_scale_error'
p294
F0.047567018026272098
sS'qcd_scale'
p295
F0.49961543467026892
sS'qcd_others_scale'
p296
F1
sS'z_scale'
p297
F1.0216892430195668
ssS'nOS'
p298
(dp299
S'qcd_z_scale'
p300
F1
sS'qcd_data_scale'
p301
F1
sS'qcd_scale_error'
p302
F0.01594389144155902
sS'z_scale_error'
p303
F0.044350507293614803
sS'qcd_scale'
p304
F0.41744961368098982
sS'qcd_others_scale'
p305
F1
sS'z_scale'
p306
F1.1139593626327766
ssssI01
(dp307
S'DETA_TAU1_TAU2'
p308
(dp309
S'OS_NONISOL'
p310
(dp311
S'qcd_z_scale'
p312
F1
sS'qcd_data_scale'
p313
F1
sS'qcd_scale_error'
p314
F0.10473848208120798
sS'z_scale_error'
p315
F19.230220569123858
sS'qcd_scale'
p316
F1.8991310934237398
sS'qcd_others_scale'
p317
F1
sS'z_scale'
p318
F318.45504559861166
ssS'SS'
p319
(dp320
S'qcd_z_scale'
p321
F1
sS'qcd_data_scale'
p322
F1
sS'qcd_scale_error'
p323
F0.049877099404233551
sS'z_scale_error'
p324
F13.923056716726119
sS'qcd_scale'
p325
F1.4270342086941159
sS'qcd_others_scale'
p326
F1
sS'z_scale'
p327
F299.87559151116869
ssS'nOS_NONISOL'
p328
(dp329
S'qcd_z_scale'
p330
F1
sS'qcd_data_scale'
p331
F1
sS'qcd_scale_error'
p332
F0.043721030056997186
sS'z_scale_error'
p333
F22.379921803045825
sS'qcd_scale'
p334
F0.77573277872247448
sS'qcd_others_scale'
p335
F1
sS'z_scale'
p336
F268.58907483603218
ssS'SS_NONISOL'
p337
(dp338
S'qcd_z_scale'
p339
F1
sS'qcd_data_scale'
p340
F1
sS'qcd_scale_error'
p341
F0.15641407471063207
sS'z_scale_error'
p342
F22.740186275826787
sS'qcd_scale'
p343
F2.8194640255505545
sS'qcd_others_scale'
p344
F1
sS'z_scale'
p345
F255.23476786338296
ssS'nOS_ISOL'
p346
(dp347
S'qcd_z_scale'
p348
F1
sS'qcd_data_scale'
p349
F1
sS'qcd_scale_error'
p350
F0.050119399837979674
sS'z_scale_error'
p351
F14.605305542762137
sS'qcd_scale'
p352
F1.4120253726335168
sS'qcd_others_scale'
p353
F1
sS'z_scale'
p354
F286.96666781052807
ssS'SS_ISOL'
p355
(dp356
S'qcd_z_scale'
p357
F1
sS'qcd_data_scale'
p358
F1
sS'qcd_scale_error'
p359
F0.19277744237240818
sS'z_scale_error'
p360
F21.395847919945272
sS'qcd_scale'
p361
F3.3576155384966451
sS'qcd_others_scale'
p362
F1
sS'z_scale'
p363
F293.68942130503439
ssS'NONISOL'
p364
(dp365
S'qcd_z_scale'
p366
F1
sS'qcd_data_scale'
p367
F1
sS'qcd_scale_error'
p368
F0.031437519997854067
sS'z_scale_error'
p369
F22.284778785829047
sS'qcd_scale'
p370
F0.5676075459406924
sS'qcd_others_scale'
p371
F1
sS'z_scale'
p372
F263.39098359462906
ssS'nOS'
p373
(dp374
S'qcd_z_scale'
p375
F1
sS'qcd_data_scale'
p376
F1
sS'qcd_scale_error'
p377
F0.030039340836577503
sS'z_scale_error'
p378
F23.4700152525945
sS'qcd_scale'
p379
F0.53004007396859376
sS'qcd_others_scale'
p380
F1
sS'z_scale'
p381
F251.02500757518243
sssS'DR_TAU1_TAU2'
p382
(dp383
S'OS_NONISOL'
p384
(dp385
S'qcd_z_scale'
p386
F1
sS'qcd_data_scale'
p387
F1
sS'qcd_scale_error'
p388
F0.091523372313780951
sS'z_scale_error'
p389
F19.343797020449763
sS'qcd_scale'
p390
F1.9336596876135304
sS'qcd_others_scale'
p391
F1
sS'z_scale'
p392
F304.50657384061236
ssS'SS'
p393
(dp394
S'qcd_z_scale'
p395
F1
sS'qcd_data_scale'
p396
F1
sS'qcd_scale_error'
p397
F0.051968203128152014
sS'z_scale_error'
p398
F15.268111826049063
sS'qcd_scale'
p399
F1.0749127139462298
sS'qcd_others_scale'
p400
F1
sS'z_scale'
p401
F402.26179117661917
ssS'nOS_NONISOL'
p402
(dp403
S'qcd_z_scale'
p404
F1
sS'qcd_data_scale'
p405
F1
sS'qcd_scale_error'
p406
F0.028388711782115116
sS'z_scale_error'
p407
F16.342899988347867
sS'qcd_scale'
p408
F0.59517536582248942
sS'qcd_others_scale'
p409
F1
sS'z_scale'
p410
F373.76527828093219
ssS'SS_NONISOL'
p411
(dp412
S'qcd_z_scale'
p413
F1
sS'qcd_data_scale'
p414
F1
sS'qcd_scale_error'
p415
F0.095893582190968357
sS'z_scale_error'
p416
F15.876509609665973
sS'qcd_scale'
p417
F2.0075877698674245
sS'qcd_others_scale'
p418
F1
sS'z_scale'
p419
F384.65430066612214
ssS'nOS_ISOL'
p420
(dp421
S'qcd_z_scale'
p422
F1
sS'qcd_data_scale'
p423
F1
sS'qcd_scale_error'
p424
F0.048371960890580296
sS'z_scale_error'
p425
F14.450058857166907
sS'qcd_scale'
p426
F0.99373249286911347
sS'qcd_others_scale'
p427
F1
sS'z_scale'
p428
F422.55652498380226
ssS'SS_ISOL'
p429
(dp430
S'qcd_z_scale'
p431
F1
sS'qcd_data_scale'
p432
F1
sS'qcd_scale_error'
p433
F0.11116335074012315
sS'z_scale_error'
p434
F14.27636136430413
sS'qcd_scale'
p435
F2.2432212271638901
sS'qcd_others_scale'
p436
F1
sS'z_scale'
p437
F431.83356860194226
ssS'NONISOL'
p438
(dp439
S'qcd_z_scale'
p440
F1
sS'qcd_data_scale'
p441
F1
sS'qcd_scale_error'
p442
F0.021851504067607511
sS'z_scale_error'
p443
F16.910228239837654
sS'qcd_scale'
p444
F0.45938954222968098
sS'qcd_others_scale'
p445
F1
sS'z_scale'
p446
F360.18733347522999
ssS'nOS'
p447
(dp448
S'qcd_z_scale'
p449
F1
sS'qcd_data_scale'
p450
F1
sS'qcd_scale_error'
p451
F0.017952547377284907
sS'z_scale_error'
p452
F15.711826415020905
sS'qcd_scale'
p453
F0.37447500834438935
sS'qcd_others_scale'
p454
F1
sS'z_scale'
p455
F389.51558464345686
ssssss.