(dp1
F12
(dp2
S'PRESELECTION'
p3
(dp4
I00
(dp5
S'DETA_TAU1_TAU2'
p6
(dp7
S'OS_NONISOL'
p8
(dp9
S'qcd_z_scale'
p10
F1
sS'qcd_data_scale'
p11
F1
sS'qcd_scale_error'
p12
F0.064447878810565504
sS'z_scale_error'
p13
F0.041456774516594817
sS'qcd_scale'
p14
F1.8803962352823693
sS'qcd_others_scale'
p15
F1
sS'z_scale'
p16
F1.0045134364057042
ssS'SS'
p17
(dp18
S'qcd_z_scale'
p19
F1
sS'qcd_data_scale'
p20
F1
sS'qcd_scale_error'
p21
F0.049748418284327432
sS'z_scale_error'
p22
F0.043508527739516856
sS'qcd_scale'
p23
F1.4245259314193399
sS'qcd_others_scale'
p24
F1
sS'z_scale'
p25
F0.95786643067835786
ssS'nOS_NONISOL'
p26
(dp27
S'qcd_z_scale'
p28
F1
sS'qcd_data_scale'
p29
F1
sS'qcd_scale_error'
p30
F0.023038673570670829
sS'z_scale_error'
p31
F0.041293312554372033
sS'qcd_scale'
p32
F0.7357119319717571
sS'qcd_others_scale'
p33
F1
sS'z_scale'
p34
F0.92045068093806259
ssS'SS_NONISOL'
p35
(dp36
S'qcd_z_scale'
p37
F1
sS'qcd_data_scale'
p38
F1
sS'qcd_scale_error'
p39
F0.11017391139417791
sS'z_scale_error'
p40
F0.052749912625707808
sS'qcd_scale'
p41
F2.5579334191517247
sS'qcd_others_scale'
p42
F1
sS'z_scale'
p43
F0.93487277135877422
ssS'nOS_ISOL'
p44
(dp45
S'qcd_z_scale'
p46
F1
sS'qcd_data_scale'
p47
F1
sS'qcd_scale_error'
p48
F0.050122617388433502
sS'z_scale_error'
p49
F0.045722044462874679
sS'qcd_scale'
p50
F1.4104047651074627
sS'qcd_others_scale'
p51
F1
sS'z_scale'
p52
F0.91870700001140682
ssS'SS_ISOL'
p53
(dp54
S'qcd_z_scale'
p55
F1
sS'qcd_data_scale'
p56
F1
sS'qcd_scale_error'
p57
F0.1376271092323248
sS'z_scale_error'
p58
F0.050036241199171973
sS'qcd_scale'
p59
F3.1098306755428591
sS'qcd_others_scale'
p60
F1
sS'z_scale'
p61
F1.0240192301409408
ssS'NONISOL'
p62
(dp63
S'qcd_z_scale'
p64
F1
sS'qcd_data_scale'
p65
F1
sS'qcd_scale_error'
p66
F0.015617742497240851
sS'z_scale_error'
p67
F0.038905108549650173
sS'qcd_scale'
p68
F0.52768935914056114
sS'qcd_others_scale'
p69
F1
sS'z_scale'
p70
F0.93794348566023578
ssS'nOS'
p71
(dp72
S'qcd_z_scale'
p73
F1
sS'qcd_data_scale'
p74
F1
sS'qcd_scale_error'
p75
F0.014326868344023053
sS'z_scale_error'
p76
F0.039520959411100419
sS'qcd_scale'
p77
F0.4781420703148338
sS'qcd_others_scale'
p78
F1
sS'z_scale'
p79
F0.93317554571405215
ssssI01
(dp80
S'DETA_TAU1_TAU2'
p81
(dp82
S'OS_NONISOL'
p83
(dp84
S'qcd_z_scale'
p85
F1
sS'qcd_data_scale'
p86
F1
sS'qcd_scale_error'
p87
F0.06583716818302382
sS'z_scale_error'
p88
F13.141142044876995
sS'qcd_scale'
p89
F1.9015166346879728
sS'qcd_others_scale'
p90
F1
sS'z_scale'
p91
F317.13767801044713
ssS'SS'
p92
(dp93
S'qcd_z_scale'
p94
F1
sS'qcd_data_scale'
p95
F1
sS'qcd_scale_error'
p96
F0.049911328486850551
sS'z_scale_error'
p97
F13.939835044758651
sS'qcd_scale'
p98
F1.4260167354484612
sS'qcd_others_scale'
p99
F1
sS'z_scale'
p100
F300.29544847814401
ssS'nOS_NONISOL'
p101
(dp102
S'qcd_z_scale'
p103
F1
sS'qcd_data_scale'
p104
F1
sS'qcd_scale_error'
p105
F0.022074885966836631
sS'z_scale_error'
p106
F12.559956865858215
sS'qcd_scale'
p107
F0.7263655425356802
sS'qcd_others_scale'
p108
F1
sS'z_scale'
p109
F295.16993337753024
ssS'SS_NONISOL'
p110
(dp111
S'qcd_z_scale'
p112
F1
sS'qcd_data_scale'
p113
F1
sS'qcd_scale_error'
p114
F0.11202333114320887
sS'z_scale_error'
p115
F17.061679874451652
sS'qcd_scale'
p116
F2.5714268321727332
sS'qcd_others_scale'
p117
F1
sS'z_scale'
p118
F291.79452582271477
ssS'nOS_ISOL'
p119
(dp120
S'qcd_z_scale'
p121
F1
sS'qcd_data_scale'
p122
F1
sS'qcd_scale_error'
p123
F0.050157742262390254
sS'z_scale_error'
p124
F14.623388817541199
sS'qcd_scale'
p125
F1.4110947694626275
sS'qcd_others_scale'
p126
F1
sS'z_scale'
p127
F287.37333272309843
ssS'SS_ISOL'
p128
(dp129
S'qcd_z_scale'
p130
F1
sS'qcd_data_scale'
p131
F1
sS'qcd_scale_error'
p132
F0.14006882876827739
sS'z_scale_error'
p133
F16.016601686821971
sS'qcd_scale'
p134
F3.1285258137243273
sS'qcd_others_scale'
p135
F1
sS'z_scale'
p136
F319.12129395246183
ssS'NONISOL'
p137
(dp138
S'qcd_z_scale'
p139
F1
sS'qcd_data_scale'
p140
F1
sS'qcd_scale_error'
p141
F0.015846442468807686
sS'z_scale_error'
p142
F12.354428341549287
sS'qcd_scale'
p143
F0.5278639529885979
sS'qcd_others_scale'
p144
F1
sS'z_scale'
p145
F296.98274075835064
ssS'nOS'
p146
(dp147
S'qcd_z_scale'
p148
F1
sS'qcd_data_scale'
p149
F1
sS'qcd_scale_error'
p150
F0.014466714313011981
sS'z_scale_error'
p151
F12.555931382018162
sS'qcd_scale'
p152
F0.47616116707239259
sS'qcd_others_scale'
p153
F1
sS'z_scale'
p154
F295.11894734192589
ssssss.